; Function Attrs: mustprogress nounwind uwtable
define dso_local i32 @_ZN4llvm15WindowScheduler15getAntiRegisterEPNS_12MachineInstrE(ptr noundef nonnull readonly align 8 captures(none) dereferenceable(6436) %0, ptr noundef nonnull %1) local_unnamed_addr #0 align 2 {
  %3 = getelementptr inbounds nuw i8, ptr %1, i64 32
  %4 = load ptr, ptr %3, align 8
  %5 = tail call noundef i32 @_ZNK4llvm12MachineInstr18getNumExplicitDefsEv(ptr noundef nonnull align 8 dereferenceable(70) %1) #21
  %6 = zext i32 %5 to i64
  %7 = getelementptr inbounds nuw %"class.llvm::MachineOperand", ptr %4, i64 %6
  %8 = load ptr, ptr %3, align 8
  %9 = getelementptr inbounds nuw i8, ptr %1, i64 40
  %10 = load i24, ptr %9, align 8
  %11 = zext i24 %10 to i64
  %12 = getelementptr inbounds nuw %"class.llvm::MachineOperand", ptr %8, i64 %11
  %.not13 = icmp eq ptr %7, %12
  br i1 %.not13, label %._crit_edge, label %.lr.ph

.lr.ph:                                           ; preds = %2
  %13 = getelementptr inbounds nuw i8, ptr %0, i64 24
  %14 = load ptr, ptr %13, align 8
  br label %15

15:                                               ; preds = %.lr.ph, %18
  %.015 = phi ptr [ %7, %.lr.ph ], [ %19, %18 ]
  %.sroa.011.014 = phi i32 [ 0, %.lr.ph ], [ %.sroa.011.1, %18 ]
  %.sroa.0.0.copyload = load i32, ptr %.015, align 8
  %.sroa.3.0..0.sroa_idx = getelementptr inbounds nuw i8, ptr %.015, i64 4
  %.sroa.3.0.copyload = load i32, ptr %.sroa.3.0..0.sroa_idx, align 4
  %trunc = trunc i32 %.sroa.0.0.copyload to i8
  switch i8 %trunc, label %.fold.split [
    i8 0, label %18
    i8 4, label %16
  ]

16:                                               ; preds = %15
  %.sroa.49.0..0.sroa_idx = getelementptr inbounds nuw i8, ptr %.015, i64 16
  %.sroa.49.0.copyload = load ptr, ptr %.sroa.49.0..0.sroa_idx, align 8
  %17 = icmp eq ptr %.sroa.49.0.copyload, %14
  br i1 %17, label %._crit_edge, label %18

.fold.split:                                      ; preds = %15
  br label %18

18:                                               ; preds = %15, %.fold.split, %16
  %.sroa.011.1 = phi i32 [ %.sroa.011.014, %16 ], [ %.sroa.3.0.copyload, %15 ], [ %.sroa.011.014, %.fold.split ]
  %19 = getelementptr inbounds nuw i8, ptr %.015, i64 32
  %.not = icmp eq ptr %19, %12
  br i1 %.not, label %._crit_edge, label %15

._crit_edge:                                      ; preds = %16, %18, %2
  %.sroa.012.0 = phi i32 [ 0, %2 ], [ 0, %18 ], [ %.sroa.011.014, %16 ]
  ret i32 %.sroa.012.0
}